; Function Attrs: null_pointer_is_valid sspstrong uwtable
define internal fastcc i32 @dissect_SpecializedResourceReportArg_PDU(ptr noundef %0, ptr noundef %1, ptr noundef %2) unnamed_addr #0 {
  %4 = alloca %struct._asn1_ctx_t, align 8
  call void @llvm.lifetime.start.p0(i64 208, ptr nonnull %4) #12
  call void @asn1_ctx_init(ptr noundef nonnull %4, i32 noundef 0, i1 noundef zeroext true, ptr noundef %1)
  %5 = load i32, ptr @camel_ver, align 4
  %6 = icmp ult i32 %5, 4
  br i1 %6, label %7, label %10

7:                                                ; preds = %3
  %8 = load i32, ptr @hf_camel_allAnnouncementsComplete, align 4
  %9 = call i32 @dissect_ber_null(i1 noundef zeroext false, ptr noundef nonnull %4, ptr noundef %2, ptr noundef %0, i32 noundef 0, i32 noundef %8)
  br label %dissect_camel_SpecializedResourceReportArg.exit

10:                                               ; preds = %3
  %11 = load i32, ptr @hf_camel_SpecializedResourceReportArg_PDU, align 4
  %12 = load i32, ptr @ett_camel_SpecializedResourceReportArg, align 4
  %13 = call i32 @dissect_ber_choice(ptr noundef nonnull %4, ptr noundef %2, ptr noundef %0, i32 noundef 0, ptr noundef nonnull @SpecializedResourceReportArg_choice, i32 noundef %11, i32 noundef %12, ptr noundef null)
  br label %dissect_camel_SpecializedResourceReportArg.exit

dissect_camel_SpecializedResourceReportArg.exit:  ; preds = %7, %10
  %.0.i = phi i32 [ %9, %7 ], [ %13, %10 ]
  call void @llvm.lifetime.end.p0(i64 208, ptr nonnull %4) #12
  ret i32 %.0.i
}